target datalayout = "e-m:e-p270:32:32-p271:32:32-p272:64:64-i64:64-i128:128-f80:128-n8:16:32:64-S128"
target triple = "x86_64-pc-linux-gnu"

%struct.AVRational = type { i32, i32 }
%struct.AVChannelLayout = type { i32, i32, %union.anon.1, ptr }
%union.anon.1 = type { i64 }
%struct.AVFrame = type { [8 x ptr], [8 x i32], ptr, i32, i32, i32, i32, i32, %struct.AVRational, i64, i64, %struct.AVRational, i32, ptr, i32, i32, [8 x ptr], ptr, i32, ptr, i32, i32, i32, i32, i32, i32, i32, i64, ptr, i32, ptr, ptr, i64, i64, i64, i64, ptr, %struct.AVChannelLayout, i64 }

; Function Attrs: nounwind uwtable
define internal void @allrgb_fill_picture(ptr noundef %0, ptr noundef %1) #1 {
  %3 = alloca ptr, align 8
  %4 = alloca ptr, align 8
  %5 = alloca i32, align 4
  %6 = alloca i32, align 4
  %7 = alloca i64, align 8
  %8 = alloca ptr, align 8
  %9 = alloca ptr, align 8
  store ptr %0, ptr %3, align 8, !tbaa !4
  store ptr %1, ptr %4, align 8, !tbaa !55
  call void @llvm.lifetime.start.p0(i64 4, ptr %5) #15
  call void @llvm.lifetime.start.p0(i64 4, ptr %6) #15
  call void @llvm.lifetime.start.p0(i64 8, ptr %7) #15
  %10 = load ptr, ptr %4, align 8, !tbaa !55
  %11 = getelementptr inbounds nuw %struct.AVFrame, ptr %10, i32 0, i32 1
  %12 = getelementptr inbounds [8 x i32], ptr %11, i64 0, i64 0
  %13 = load i32, ptr %12, align 8, !tbaa !36
  %14 = sext i32 %13 to i64
  store i64 %14, ptr %7, align 8, !tbaa !85
  call void @llvm.lifetime.start.p0(i64 8, ptr %8) #15
  %15 = load ptr, ptr %4, align 8, !tbaa !55
  %16 = getelementptr inbounds nuw %struct.AVFrame, ptr %15, i32 0, i32 0
  %17 = getelementptr inbounds [8 x ptr], ptr %16, i64 0, i64 0
  %18 = load ptr, ptr %17, align 8, !tbaa !35
  store ptr %18, ptr %8, align 8, !tbaa !35
  store i32 0, ptr %6, align 4, !tbaa !36
  br label %19

19:                                               ; preds = %52, %2
  %20 = load i32, ptr %6, align 4, !tbaa !36
  %21 = icmp ult i32 %20, 4096
  br i1 %21, label %22, label %55

22:                                               ; preds = %19
  call void @llvm.lifetime.start.p0(i64 8, ptr %9) #15
  %23 = load ptr, ptr %8, align 8, !tbaa !35
  store ptr %23, ptr %9, align 8, !tbaa !35
  store i32 0, ptr %5, align 4, !tbaa !36
  br label %24

24:                                               ; preds = %45, %22
  %25 = load i32, ptr %5, align 4, !tbaa !36
  %26 = icmp ult i32 %25, 4096
  br i1 %26, label %27, label %48

27:                                               ; preds = %24
  %28 = load i32, ptr %5, align 4, !tbaa !36
  %29 = trunc i32 %28 to i8
  %30 = load ptr, ptr %9, align 8, !tbaa !35
  %31 = getelementptr inbounds nuw i8, ptr %30, i32 1
  store ptr %31, ptr %9, align 8, !tbaa !35
  store i8 %29, ptr %30, align 1, !tbaa !97
  %32 = load i32, ptr %6, align 4, !tbaa !36
  %33 = trunc i32 %32 to i8
  %34 = load ptr, ptr %9, align 8, !tbaa !35
  %35 = getelementptr inbounds nuw i8, ptr %34, i32 1
  store ptr %35, ptr %9, align 8, !tbaa !35
  store i8 %33, ptr %34, align 1, !tbaa !97
  %36 = load i32, ptr %5, align 4, !tbaa !36
  %37 = lshr i32 %36, 8
  %38 = load i32, ptr %6, align 4, !tbaa !36
  %39 = lshr i32 %38, 8
  %40 = shl i32 %39, 4
  %41 = or i32 %37, %40
  %42 = trunc i32 %41 to i8
  %43 = load ptr, ptr %9, align 8, !tbaa !35
  %44 = getelementptr inbounds nuw i8, ptr %43, i32 1
  store ptr %44, ptr %9, align 8, !tbaa !35
  store i8 %42, ptr %43, align 1, !tbaa !97
  br label %45

45:                                               ; preds = %27
  %46 = load i32, ptr %5, align 4, !tbaa !36
  %47 = add i32 %46, 1
  store i32 %47, ptr %5, align 4, !tbaa !36
  br label %24, !llvm.loop !161

48:                                               ; preds = %24
  %49 = load i64, ptr %7, align 8, !tbaa !85
  %50 = load ptr, ptr %8, align 8, !tbaa !35
  %51 = getelementptr inbounds i8, ptr %50, i64 %49
  store ptr %51, ptr %8, align 8, !tbaa !35
  call void @llvm.lifetime.end.p0(i64 8, ptr %9) #15
  br label %52

52:                                               ; preds = %48
  %53 = load i32, ptr %6, align 4, !tbaa !36
  %54 = add i32 %53, 1
  store i32 %54, ptr %6, align 4, !tbaa !36
  br label %19, !llvm.loop !162

55:                                               ; preds = %19
  call void @llvm.lifetime.end.p0(i64 8, ptr %8) #15
  call void @llvm.lifetime.end.p0(i64 8, ptr %7) #15
  call void @llvm.lifetime.end.p0(i64 4, ptr %6) #15
  call void @llvm.lifetime.end.p0(i64 4, ptr %5) #15
  ret void
}