; Function Attrs: nofree norecurse nosync nounwind memory(write, argmem: readwrite, inaccessiblemem: none) uwtable
define internal void @allrgb_fill_picture(ptr readnone captures(none) %0, ptr noundef readonly captures(none) %1) #15 {
  %3 = getelementptr inbounds nuw i8, ptr %1, i64 64
  %4 = load i32, ptr %3, align 8, !tbaa !70
  %5 = sext i32 %4 to i64
  %6 = load ptr, ptr %1, align 8, !tbaa !69
  br label %.preheader

.preheader:                                       ; preds = %2, %19
  %.01521 = phi ptr [ %6, %2 ], [ %20, %19 ]
  %.01720 = phi i32 [ 0, %2 ], [ %21, %19 ]
  %7 = trunc i32 %.01720 to i8
  %8 = lshr i32 %.01720, 4
  %9 = and i32 %8, 240
  br label %10

10:                                               ; preds = %.preheader, %10
  %.019 = phi ptr [ %.01521, %.preheader ], [ %17, %10 ]
  %.01618 = phi i32 [ 0, %.preheader ], [ %18, %10 ]
  %11 = trunc i32 %.01618 to i8
  %12 = getelementptr inbounds nuw i8, ptr %.019, i64 1
  store i8 %11, ptr %.019, align 1, !tbaa !76
  %13 = getelementptr inbounds nuw i8, ptr %.019, i64 2
  store i8 %7, ptr %12, align 1, !tbaa !76
  %14 = lshr i32 %.01618, 8
  %15 = or disjoint i32 %14, %9
  %16 = trunc nuw i32 %15 to i8
  %17 = getelementptr inbounds nuw i8, ptr %.019, i64 3
  store i8 %16, ptr %13, align 1, !tbaa !76
  %18 = add nuw nsw i32 %.01618, 1
  %exitcond.not = icmp eq i32 %18, 4096
  br i1 %exitcond.not, label %19, label %10, !llvm.loop !131

19:                                               ; preds = %10
  %20 = getelementptr inbounds i8, ptr %.01521, i64 %5
  %21 = add nuw nsw i32 %.01720, 1
  %exitcond22.not = icmp eq i32 %21, 4096
  br i1 %exitcond22.not, label %22, label %.preheader, !llvm.loop !132

22:                                               ; preds = %19
  ret void
}